; Function Attrs: mustprogress uwtable
define internal noundef i32 @_ZL25u_sprintf_pad_and_justifyPvPK18u_printf_spec_infoPKDsi(ptr noundef captures(none) %0, ptr noundef readonly captures(none) %1, ptr noundef %2, i32 noundef %3) #0 {
  %5 = load ptr, ptr %0, align 8, !tbaa !7
  %6 = icmp eq ptr %5, null
  %7 = getelementptr inbounds nuw i8, ptr %1, i64 4
  %8 = load i32, ptr %7, align 4, !tbaa !17
  br i1 %6, label %9, label %.thread

9:                                                ; preds = %4
  %.not = icmp ne i32 %8, -1
  %10 = icmp slt i32 %3, %8
  %or.cond = and i1 %.not, %10
  br i1 %or.cond, label %72, label %11

11:                                               ; preds = %9
  %12 = getelementptr inbounds nuw i8, ptr %0, i64 8
  %13 = load i32, ptr %12, align 8, !tbaa !14
  %. = tail call i32 @llvm.smin.i32(i32 %3, i32 %13)
  %.not65 = icmp ne i32 %8, -1
  %14 = icmp slt i32 %., %8
  %or.cond67 = select i1 %.not65, i1 %14, i1 false
  br i1 %or.cond67, label %18, label %_ZL15u_sprintf_writePvPKDsi.exit74

.thread:                                          ; preds = %4
  %15 = getelementptr inbounds nuw i8, ptr %0, i64 8
  %16 = load i32, ptr %15, align 8, !tbaa !14
  %.76 = tail call i32 @llvm.smin.i32(i32 %3, i32 %16)
  %.not6577 = icmp ne i32 %8, -1
  %17 = icmp slt i32 %.76, %8
  %or.cond6778 = select i1 %.not6577, i1 %17, i1 false
  br i1 %or.cond6778, label %18, label %61

18:                                               ; preds = %.thread, %11
  %.79 = phi i32 [ %.76, %.thread ], [ %., %11 ]
  %19 = phi i32 [ %16, %.thread ], [ %13, %11 ]
  %20 = phi ptr [ %15, %.thread ], [ %12, %11 ]
  %21 = sub nsw i32 %8, %.79
  %22 = getelementptr inbounds nuw i8, ptr %0, i64 12
  %23 = load i32, ptr %22, align 4, !tbaa !13
  %24 = sub nsw i32 %23, %19
  %25 = icmp sgt i32 %8, %19
  %26 = sub nsw i32 %19, %.79
  %spec.store.select = tail call i32 @llvm.smax.i32(i32 %26, i32 0)
  %.056 = select i1 %25, i32 %spec.store.select, i32 %21
  %27 = getelementptr inbounds nuw i8, ptr %1, i64 16
  %28 = load i8, ptr %27, align 4, !tbaa !19
  %.not66 = icmp eq i8 %28, 0
  br i1 %.not66, label %43, label %29

29:                                               ; preds = %18
  br i1 %6, label %_ZL15u_sprintf_writePvPKDsi.exit, label %30

30:                                               ; preds = %29
  %31 = sext i32 %24 to i64
  %32 = getelementptr inbounds i16, ptr %5, i64 %31
  %33 = tail call ptr @u_strncpy_77(ptr noundef nonnull %32, ptr noundef %2, i32 noundef %.79)
  %34 = load i32, ptr %20, align 8, !tbaa !14
  %35 = sub nsw i32 %34, %.79
  store i32 %35, ptr %20, align 8, !tbaa !14
  %.pre75 = load ptr, ptr %0, align 8, !tbaa !7
  br label %_ZL15u_sprintf_writePvPKDsi.exit

_ZL15u_sprintf_writePvPKDsi.exit:                 ; preds = %29, %30
  %36 = phi ptr [ null, %29 ], [ %.pre75, %30 ]
  %37 = add nsw i32 %24, %.79
  %38 = sext i32 %37 to i64
  %39 = getelementptr inbounds i16, ptr %36, i64 %38
  %40 = getelementptr inbounds nuw i8, ptr %1, i64 12
  %41 = load i16, ptr %40, align 4, !tbaa !20
  %42 = tail call ptr @u_memset_77(ptr noundef %39, i16 noundef zeroext %41, i32 noundef %.056)
  br label %_ZL15u_sprintf_writePvPKDsi.exit71.sink.split

43:                                               ; preds = %18
  %44 = sext i32 %24 to i64
  %45 = getelementptr inbounds i16, ptr %5, i64 %44
  %46 = getelementptr inbounds nuw i8, ptr %1, i64 12
  %47 = load i16, ptr %46, align 4, !tbaa !20
  %48 = tail call ptr @u_memset_77(ptr noundef %45, i16 noundef zeroext %47, i32 noundef %.056)
  %49 = load i32, ptr %20, align 8, !tbaa !14
  %50 = sub nsw i32 %49, %.056
  store i32 %50, ptr %20, align 8, !tbaa !14
  %51 = load ptr, ptr %0, align 8, !tbaa !7
  %52 = icmp eq ptr %51, null
  br i1 %52, label %_ZL15u_sprintf_writePvPKDsi.exit71, label %53

53:                                               ; preds = %43
  %..i69 = tail call i32 @llvm.smin.i32(i32 %.79, i32 %50)
  %54 = load i32, ptr %22, align 4, !tbaa !13
  %55 = sub nsw i32 %54, %50
  %56 = sext i32 %55 to i64
  %57 = getelementptr inbounds i16, ptr %51, i64 %56
  %58 = tail call ptr @u_strncpy_77(ptr noundef nonnull %57, ptr noundef %2, i32 noundef %..i69)
  br label %_ZL15u_sprintf_writePvPKDsi.exit71.sink.split

_ZL15u_sprintf_writePvPKDsi.exit71.sink.split:    ; preds = %_ZL15u_sprintf_writePvPKDsi.exit, %53
  %..i69.sink = phi i32 [ %..i69, %53 ], [ %.056, %_ZL15u_sprintf_writePvPKDsi.exit ]
  %.pn.ph = phi i32 [ %..i69, %53 ], [ %.79, %_ZL15u_sprintf_writePvPKDsi.exit ]
  %59 = load i32, ptr %20, align 8, !tbaa !14
  %60 = sub nsw i32 %59, %..i69.sink
  store i32 %60, ptr %20, align 8, !tbaa !14
  br label %_ZL15u_sprintf_writePvPKDsi.exit71

_ZL15u_sprintf_writePvPKDsi.exit71:               ; preds = %_ZL15u_sprintf_writePvPKDsi.exit71.sink.split, %43
  %.pn = phi i32 [ %.79, %43 ], [ %.pn.ph, %_ZL15u_sprintf_writePvPKDsi.exit71.sink.split ]
  %.057 = add nsw i32 %.pn, %.056
  br label %_ZL15u_sprintf_writePvPKDsi.exit74

61:                                               ; preds = %.thread
  %62 = getelementptr inbounds nuw i8, ptr %0, i64 12
  %63 = load i32, ptr %62, align 4, !tbaa !13
  %64 = sub nsw i32 %63, %16
  %65 = sext i32 %64 to i64
  %66 = getelementptr inbounds i16, ptr %5, i64 %65
  %67 = tail call ptr @u_strncpy_77(ptr noundef nonnull %66, ptr noundef %2, i32 noundef %.76)
  %68 = load i32, ptr %15, align 8, !tbaa !14
  %69 = sub nsw i32 %68, %.76
  store i32 %69, ptr %15, align 8, !tbaa !14
  br label %_ZL15u_sprintf_writePvPKDsi.exit74

_ZL15u_sprintf_writePvPKDsi.exit74:               ; preds = %11, %61, %_ZL15u_sprintf_writePvPKDsi.exit71
  %.1 = phi i32 [ %.057, %_ZL15u_sprintf_writePvPKDsi.exit71 ], [ %.76, %61 ], [ %., %11 ]
  %70 = tail call i32 @llvm.smax.i32(i32 %3, i32 %.1)
  %71 = icmp slt i32 %.1, 0
  %spec.select = select i1 %71, i32 %.1, i32 %70
  br label %72

72:                                               ; preds = %_ZL15u_sprintf_writePvPKDsi.exit74, %9
  %.0 = phi i32 [ %8, %9 ], [ %spec.select, %_ZL15u_sprintf_writePvPKDsi.exit74 ]
  ret i32 %.0
}